; Function Attrs: mustprogress nofree norecurse nosync nounwind willreturn memory(argmem: readwrite) uwtable
define hidden range(i32 0, 2) i32 @OPENSSL_gmtime_diff(ptr noundef writeonly captures(address_is_null) %0, ptr noundef writeonly captures(address_is_null) %1, ptr noundef readonly captures(none) %2, ptr noundef readonly captures(none) %3) local_unnamed_addr #2 {
  %5 = getelementptr inbounds nuw i8, ptr %2, i64 8
  %6 = load i32, ptr %5, align 8, !tbaa !6
  %7 = mul nsw i32 %6, 3600
  %8 = getelementptr inbounds nuw i8, ptr %2, i64 4
  %9 = load i32, ptr %8, align 4, !tbaa !14
  %10 = mul nsw i32 %9, 60
  %11 = load i32, ptr %2, align 8, !tbaa !15
  %12 = add i32 %10, %7
  %13 = add i32 %12, %11
  %14 = icmp sgt i32 %13, 86399
  br i1 %14, label %15, label %17

15:                                               ; preds = %4
  %16 = add nsw i32 %13, -86400
  br label %21

17:                                               ; preds = %4
  %18 = icmp slt i32 %13, 0
  %19 = add nsw i32 %13, 86400
  %.lobit = ashr i32 %13, 31
  %spec.select48 = select i1 %18, i32 %19, i32 %13
  %20 = sext i32 %.lobit to i64
  br label %21

21:                                               ; preds = %17, %15
  %.029.i = phi i64 [ 1, %15 ], [ %20, %17 ]
  %.028.i = phi i32 [ %16, %15 ], [ %spec.select48, %17 ]
  %22 = getelementptr inbounds nuw i8, ptr %2, i64 20
  %23 = load i32, ptr %22, align 4, !tbaa !16
  %24 = add nsw i32 %23, 1900
  %25 = getelementptr inbounds nuw i8, ptr %2, i64 16
  %26 = load i32, ptr %25, align 8, !tbaa !17
  %27 = getelementptr inbounds nuw i8, ptr %2, i64 12
  %28 = load i32, ptr %27, align 4, !tbaa !18
  %29 = add nsw i32 %26, -13
  %30 = sdiv i32 %29, 12
  %31 = add i32 %24, %30
  %32 = mul i32 %31, 1461
  %33 = add i32 %32, 7012800
  %34 = sdiv i32 %33, 4
  %35 = add nsw i32 %26, -1
  %.neg.i.i = mul nsw i32 %30, -12
  %36 = add i32 %35, %.neg.i.i
  %37 = mul nsw i32 %36, 367
  %38 = sdiv i32 %37, 12
  %39 = add i32 %31, 4900
  %40 = sdiv i32 %39, 100
  %41 = mul nsw i32 %40, 3
  %.neg7.i.i = sdiv i32 %41, -4
  %42 = add i32 %28, -32075
  %43 = add i32 %42, %34
  %44 = add i32 %43, %38
  %45 = add i32 %44, %.neg7.i.i
  %46 = sext i32 %45 to i64
  %47 = add nsw i64 %.029.i, %46
  %48 = icmp slt i64 %47, 0
  br i1 %48, label %julian_adj.exit.thread, label %julian_adj.exit

julian_adj.exit:                                  ; preds = %21
  %49 = getelementptr inbounds nuw i8, ptr %3, i64 8
  %50 = load i32, ptr %49, align 8, !tbaa !6
  %51 = mul nsw i32 %50, 3600
  %52 = getelementptr inbounds nuw i8, ptr %3, i64 4
  %53 = load i32, ptr %52, align 4, !tbaa !14
  %54 = mul nsw i32 %53, 60
  %55 = load i32, ptr %3, align 8, !tbaa !15
  %56 = add i32 %54, %51
  %57 = add i32 %56, %55
  %58 = icmp sgt i32 %57, 86399
  br i1 %58, label %59, label %61

59:                                               ; preds = %julian_adj.exit
  %60 = add nsw i32 %57, -86400
  br label %65

61:                                               ; preds = %julian_adj.exit
  %62 = icmp slt i32 %57, 0
  %63 = add nsw i32 %57, 86400
  %.lobit51 = ashr i32 %57, 31
  %spec.select50 = select i1 %62, i32 %63, i32 %57
  %64 = sext i32 %.lobit51 to i64
  br label %65

65:                                               ; preds = %61, %59
  %.029.i29 = phi i64 [ 1, %59 ], [ %64, %61 ]
  %.028.i30 = phi i32 [ %60, %59 ], [ %spec.select50, %61 ]
  %66 = getelementptr inbounds nuw i8, ptr %3, i64 20
  %67 = load i32, ptr %66, align 4, !tbaa !16
  %68 = add nsw i32 %67, 1900
  %69 = getelementptr inbounds nuw i8, ptr %3, i64 16
  %70 = load i32, ptr %69, align 8, !tbaa !17
  %71 = getelementptr inbounds nuw i8, ptr %3, i64 12
  %72 = load i32, ptr %71, align 4, !tbaa !18
  %73 = add nsw i32 %70, -13
  %74 = sdiv i32 %73, 12
  %75 = add i32 %68, %74
  %76 = mul i32 %75, 1461
  %77 = add i32 %76, 7012800
  %78 = sdiv i32 %77, 4
  %79 = add nsw i32 %70, -1
  %.neg.i.i31 = mul nsw i32 %74, -12
  %80 = add i32 %79, %.neg.i.i31
  %81 = mul nsw i32 %80, 367
  %82 = sdiv i32 %81, 12
  %83 = add i32 %75, 4900
  %84 = sdiv i32 %83, 100
  %85 = mul nsw i32 %84, 3
  %.neg7.i.i32 = sdiv i32 %85, -4
  %86 = add i32 %72, -32075
  %87 = add i32 %86, %78
  %88 = add i32 %87, %82
  %89 = add i32 %88, %.neg7.i.i32
  %90 = sext i32 %89 to i64
  %91 = add nsw i64 %.029.i29, %90
  %92 = icmp slt i64 %91, 0
  br i1 %92, label %julian_adj.exit.thread, label %julian_adj.exit34

julian_adj.exit34:                                ; preds = %65
  %93 = sub nsw i64 %91, %47
  %94 = sub nsw i32 %.028.i30, %.028.i
  %95 = icmp sgt i64 %93, 0
  %96 = icmp slt i32 %94, 0
  %or.cond = select i1 %95, i1 %96, i1 false
  %97 = add nsw i32 %94, 86400
  %.019 = select i1 %or.cond, i32 %97, i32 %94
  %98 = sext i1 %or.cond to i64
  %.0 = add nsw i64 %93, %98
  %99 = icmp slt i64 %.0, 0
  %100 = icmp sgt i32 %.019, 0
  %or.cond3 = select i1 %99, i1 %100, i1 false
  %101 = add nsw i32 %.019, -86400
  %.120 = select i1 %or.cond3, i32 %101, i32 %.019
  %.not27 = icmp eq ptr %0, null
  br i1 %.not27, label %105, label %102

102:                                              ; preds = %julian_adj.exit34
  %103 = zext i1 %or.cond3 to i64
  %.1 = add nsw i64 %.0, %103
  %104 = trunc i64 %.1 to i32
  store i32 %104, ptr %0, align 4, !tbaa !19
  br label %105

105:                                              ; preds = %102, %julian_adj.exit34
  %.not28 = icmp eq ptr %1, null
  br i1 %.not28, label %julian_adj.exit.thread, label %106

106:                                              ; preds = %105
  store i32 %.120, ptr %1, align 4, !tbaa !19
  br label %julian_adj.exit.thread

julian_adj.exit.thread:                           ; preds = %65, %21, %105, %106
  %.021 = phi i32 [ 1, %106 ], [ 1, %105 ], [ 0, %21 ], [ 0, %65 ]
  ret i32 %.021
}